(lp0
S'hip'
p1
aS'art'
p2
aS'craft'
p3
aS'ethnic'
p4
aS'fair trade'
p5
aS'organic'
p6
aS'homebrew'
p7
aS'home-brew'
p8
aS'home brew'
p9
aS'whole foods'
p10
aS'veggie'
p11
aS'flea market'
p12
aS'thrift'
p13
aS'gentrif'
p14
aS'goofy'
p15
aS'trendy'
p16
aS'bohemian'
p17
aS'vintage'
p18
aS'rustic'
p19
aS'retro'
p20
aS'coding'
p21
aS'tech'
p22
aS'science'
p23
aS'walkable'
p24
aS'urban'
p25
aS'expat'
p26
aS'mixed race'
p27
aS'progressive'
p28
aS'grunge'
p29
aS'indie'
p30
aS'alternative'
p31
aS'underground'
p32
aS'community'
p33
aS'asshole'
p34
aS'aol'
p35
aS'alex'
p36
aS'atheist'
p37
aS'ashley'
p38
aS'andrew'
p39
aS'amanda'
p40
aS'abercrombie and fitch'
p41
aS'adams'
p42
aS'abercrombie'
p43
aS'america'
p44
aS'anime'
p45
aS'ass'
p46
aS'avril lavigne'
p47
aS'alyssa'
p48
aS'aaron'
p49
aS'apple'
p50
aS'amber'
p51
aS'abortion'
p52
aS'austin'
p53
aS'anthony'
p54
aS'alexis'
p55
aS'american'
p56
aS'anna'
p57
aS'australia'
p58
aS'attention whore'
p59
aS'asshat'
p60
aS'angel'
p61
aS'assclown'
p62
aS'andre'
p63
aS'angela'
p64
aS'amy'
p65
aS'abby'
p66
aS'arab'
p67
aS'awesome'
p68
aS'atm'
p69
aS'aids'
p70
aS'ak-47'
p71
aS'ava'
p72
aS'allison'
p73
aS'asian'
p74
aS'ann coulter'
p75
aS'anarchy'
p76
aS'atheism'
p77
aS'american football'
p78
aS'algebra'
p79
aS'alexandra'
p80
aS'alice'
p81
aS'andrea'
p82
aS'andy'
p83
aS'anti-vaxxer'
p84
aS'ashlee simpson'
p85
aS'anal'
p86
aS'anonymous'
p87
aS'agnostic'
p88
aS'abc'
p89
aS'ace'
p90
aS'angelina jolie'
p91
aS'american eagle'
p92
aS'ana'
p93
aS'alicia'
p94
aS'arianna'
p95
aS'ac/dc'
p96
aS'asswipe'
p97
aS'african american'
p98
aS'ashanti'
p99
aS'alcohol'
p100
aS'axl rose'
p101
aS'ariana'
p102
aS'awkward'
p103
aS'autumn'
p104
aS'amelia'
p105
aS'annie'
p106
aS'anal sex'
p107
aS'adorkable'
p108
aS'asl'
p109
aS'avatar'
p110
aS'aidan'
p111
aS'abercrombie &amp; fitch'
p112
aS'aim'
p113
aS'aeropostales'
p114
aS'afi'
p115
aS'aaliyah'
p116
aS'american idiot'
p117
aS'adult swim'
p118
aS'aa'
p119
aS'abigail'
p120
aS'avenged sevenfold'
p121
aS'ally'
p122
aS'alec'
p123
aS'apple computer'
p124
aS'american idol'
p125
aS'adrian'
p126
aS'amazing'
p127
aS'alabama'
p128
aS'angie'
p129
aS'avery'
p130
aS'arse'
p131
aS'alexander'
p132
aS'aight'
p133
aS'bush'
p134
aS'bitch'
p135
aS'bmw'
p136
aS'britney spears'
p137
aS'boobs'
p138
aS'blow job'
p139
aS'brandon'
p140
aS'barack obamas'
p141
aS'banana'
p142
aS'bella'
p143
aS'beautiful'
p144
aS'bestfriend'
p145
aS'bisexual'
p146
aS'butter face'
p147
aS'bible'
p148
aS'b.a.e.'
p149
aS'bro'
p150
aS'ben'
p151
aS'blink 182'
p152
aS'billie joe armstrong'
p153
aS'beer'
p154
aS'bamf'
p155
aS'bbc'
p156
aS'bing'
p157
aS'beyonce'
p158
aS'boyfriend'
p159
aS'boo'
p160
aS'baby'
p161
aS'b.o.m.b'
p162
aS'balls'
p163
aS'b.o.b.'
p164
aS'bloods'
p165
aS'brooke'
p166
aS'booty'
p167
aS'bacon'
p168
aS'bill clinton'
p169
aS'boys'
p170
aS'badass'
p171
aS'batman'
p172
aS'brianna'
p173
aS'bootybrows'
p174
aS'badonkadonk'
p175
aS'brick'
p176
aS'boner'
p177
aS'blue balls'
p178
aS'brian'
p179
aS'blonde'
p180
aS'baseball'
p181
aS'buttsex'
p182
aS'bromance'
p183
aS'bogan'
p184
aS'brittany'
p185
aS'bam margera'
p186
aS'bang'
p187
aS'bbw'
p188
aS'blake'
p189
aS'barney'
p190
aS'bullshit!'
p191
aS'bruce lee'
p192
aS'bet'
p193
aS'bird'
p194
aS'butters'
p195
aS'beast'
p196
aS'brooklyn'
p197
aS'beaner'
p198
aS'british'
p199
aS'b-rad'
p200
aS'ballin'
p201
aS'breasts'
p202
aS'band geek'
p203
aS'bored'
p204
aS'bean'
p205
aS'bill o&apos;reilly'
p206
aS'bastard'
p207
aS'brain'
p208
aS'buff'
p209
aS'beat'
p210
aS'blue'
p211
aS'bully'
p212
aS'brony'
p213
aS'books'
p214
aS'barbie'
p215
aS'boss'
p216
aS'bryan'
p217
aS'bone'
p218
aS'b&apos;ass'
p219
aS'boobies'
p220
aS'bailey'
p221
aS'bert mccracken'
p222
aS'bi-winning'
p223
aS'black friday'
p224
aS'boot'
p225
aS'brendon urie'
p226
aS'buck'
p227
aS'booboo'
p228
aS'basic bitch'
p229
aS'beef'
p230
aS'b.o.'
p231
aS'black peoples'
p232
aS'bro job'
p233
aS'chavs'
p234
aS'cunt'
p235
aS'canada'
p236
aS'covfefe'
p237
aS'chode'
p238
aS'chris brown'
p239
aS'chuck norris'
p240
aS'chris'
p241
aS'cracker'
p242
aS'california'
p243
aS'camel toe'
p244
aS'christian'
p245
aS'college'
p246
aS'canada&apos;s history'
p247
aS'cats'
p248
aS'cock'
p249
aS'chloe'
p250
aS'cheerleaders'
p251
aS'cum'
p252
aS'crunk'
p253
aS'connor'
p254
aS'chad'
p255
aS'cock block'
p256
aS'condom'
p257
aS'courtney'
p258
aS'christianity'
p259
aS'cakes'
p260
aS'creeper'
p261
aS'christmas'
p262
aS'cute'
p263
aS'crush'
p264
aS'cameron'
p265
aS'cross country'
p266
aS'cool'
p267
aS'caitlin'
p268
aS'cheerleading'
p269
aS'chicago'
p270
aS'call of duty'
p271
aS'crips'
p272
aS'cheese'
p273
aS'counter-strike'
p274
aS'claire'
p275
aS'cody'
p276
aS'cum dumpster'
p277
aS'chelsea'
p278
aS'cockblocker'
p279
aS'communism'
p280
aS'crap'
p281
aS'chalga'
p282
aS'caroline'
p283
aS'camaro'
p284
aS'conservative'
p285
aS'christopher'
p286
aS'cut'
p287
aS'clusterfuck'
p288
aS'cole'
p289
aS'cop'
p290
aS'cutter'
p291
aS'caleb'
p292
aS'creep'
p293
aS'cigarette'
p294
aS'charliesheen'
p295
aS'chickenhead'
p296
aS'chop'
p297
aS'cocaine'
p298
aS'cougar'
p299
aS'charlotte'
p300
aS'charlie'
p301
aS'canadians'
p302
aS'colorguard'
p303
aS'cell phone'
p304
aS'coon'
p305
aS'cherries'
p306
aS'cocksucker'
p307
aS'cupcakes'
p308
aS'circle jerk'
p309
aS'crabs'
p310
aS'converse'
p311
aS'cassidy'
p312
aS'computer'
p313
aS'carlo'
p314
aS'coffee'
p315
aS'chill'
p316
aS'choad'
p317
aS'chicken'
p318
aS'crystal'
p319
aS'cow'
p320
aS'crack whore'
p321
aS'cods'
p322
aS'cholo'
p323
aS'chase'
p324
aS'crackhead'
p325
aS'civic'
p326
aS'cleveland steamer'
p327
aS'christina'
p328
aS'carly'
p329
aS'camper'
p330
aS'cheyenne'
p331
aS'cuck'
p332
aS'clowns'
p333
aS'douchebag'
p334
aS'democrats'
p335
aS'david'
p336
aS'dylan'
p337
aS'dick cheney'
p338
aS'dick'
p339
aS'daniel'
p340
aS'death'
p341
aS'douche'
p342
aS'dumbass'
p343
aS'dildo'
p344
aS'dude'
p345
aS'donald trump'
p346
aS'dingleberry'
p347
aS'dubstep'
p348
aS'depression'
p349
aS'dog'
p350
aS'dab'
p351
aS'death metal'
p352
aS'danielle'
p353
aS'dank'
p354
aS'duck'
p355
aS'dub'
p356
aS'detroit'
p357
aS'dan'
p358
aS'dirty sanchez'
p359
aS'dork'
p360
aS'dickhead'
p361
aS'dip'
p362
aS'disney channel'
p363
aS'danny'
p364
aS'dragonball z'
p365
aS'directioner'
p366
aS'dsl'
p367
aS'dodge'
p368
aS'dr pepper'
p369
aS'daddy'
p370
aS'deuces'
p371
aS'derp'
p372
aS'diarrhea'
p373
aS'dope'
p374
aS'deez nuts'
p375
aS'drunk'
p376
aS'devon'
p377
aS'dad'
p378
aS'dc'
p379
aS'dead'
p380
aS'dr. phil'
p381
aS'dr. dre'
p382
aS'dragonforce'
p383
aS'dubya'
p384
aS'dilf'
p385
aS'duff'
p386
aS'daisy'
p387
aS'drugs'
p388
aS'd&apos;oh'
p389
aS'donkeypunch'
p390
aS'devin'
p391
aS'disney'
p392
aS'dictionary'
p393
aS'dime'
p394
aS'dome'
p395
aS'democracy'
p396
aS'destiny'
p397
aS'dink'
p398
aS'disturbed'
p399
aS'da'
p400
aS'duke'
p401
aS'dom'
p402
aS'drummer'
p403
aS'drama'
p404
aS'dakota'
p405
aS'derek'
p406
aS'douchebaggery'
p407
aS'dane cook'
p408
aS'dp'
p409
aS'dtf'
p410
aS'deviantart'
p411
aS'dipshit'
p412
aS'dyke'
p413
aS'diva'
p414
aS'drake'
p415
aS'd&apos;s'
p416
aS'diana'
p417
aS'dave'
p418
aS'dragon'
p419
aS'dustin'
p420
aS'donk'
p421
aS'david bowie'
p422
aS'douche canoe'
p423
aS'dave chappelle'
p424
aS'dipset'
p425
aS'divorce'
p426
aS'duck butter'
p427
aS'diversity'
p428
aS'dinosaur'
p429
aS'dora the explorer'
p430
aS'dutch oven'
p431
aS'drew'
p432
aS'dutch'
p433
aS'emo'
p434
aS'emily'
p435
aS'emma'
p436
aS'emo kids'
p437
aS'encyclopedia dramatica'
p438
aS'edward cullen'
p439
aS'eminem'
p440
aS'eric'
p441
aS'ethan'
p442
aS'ebonics'
p443
aS'ellie'
p444
aS'erin'
p445
aS'ella'
p446
aS'ebay'
p447
aS'elizabeth'
p448
aS'england'
p449
aS'eazy e'
p450
aS'emo boy'
p451
aS'erica'
p452
aS'evolution'
p453
aS'evils'
p454
aS'epic fail'
p455
aS'eargasm'
p456
aS'evan'
p457
aS'earth'
p458
aS'eli'
p459
aS'eugene'
p460
aS'eh'
p461
aS'english'
p462
aS'elijah'
p463
aS'epic'
p464
aS'eat out'
p465
aS'eggs'
p466
aS'elise'
p467
aS'explosive diarrhea'
p468
aS'elena'
p469
aS'ecstasy'
p470
aS'engineer'
p471
aS'erik'
p472
aS'eddie'
p473
aS'ems'
p474
aS'eurotrash'
p475
aS'e tard'
p476
aS'edward'
p477
aS'ex boyfriend'
p478
aS'editors'
p479
aS'erection'
p480
aS'elmo'
p481
aS'emo girl'
p482
aS'eva'
p483
aS'ea'
p484
aS'emu'
p485
aS'evanescence'
p486
aS'essay'
p487
aS'ellen'
p488
aS'erika'
p489
aS'eden'
p490
aS'education'
p491
aS'ese'
p492
aS'easy'
p493
aS'e-thug'
p494
aS'espn'
p495
aS'esther'
p496
aS'edges'
p497
aS'emma watson'
p498
aS'edgy'
p499
aS'emilia'
p500
aS'engrish'
p501
aS'emo hair'
p502
aS'elephant'
p503
aS'eastchester'
p504
aS'evelyn'
p505
aS'ed'
p506
aS'emosexual'
p507
aS'elias'
p508
aS'edmonton'
p509
aS'emofag'
p510
aS'elli'
p511
aS'eddys'
p512
aS'eat'
p513
aS'evie'
p514
aS'eiffel tower'
p515
aS'ebola'
p516
aS'egoseismic'
p517
aS'envy'
p518
aS'email'
p519
aS'eve'
p520
aS'ego'
p521
aS'elitist'
p522
aS'east coast'
p523
aS'e.l.f.'
p524
aS'essex'
p525
aS'extra'
p526
aS'eating out'
p527
aS'eclipse'
p528
aS'eightball'
p529
aS'emo poser'
p530
aS'eejit'
p531
aS'echo'
p532
aS'emo hater'
p533
aS'f.a.g.'
p534
aS'fuckboy'
p535
aS'facebook'
p536
aS'f.u.p.a.'
p537
aS'feminist'
p538
aS'feminism'
p539
aS'fuck'
p540
aS'fucktard'
p541
aS'faggot'
p542
aS'friends'
p543
aS'fall out boy'
p544
aS'fart'
p545
aS'f.o.r.d.'
p546
aS'florida'
p547
aS'furry'
p548
aS'fat'
p549
aS'fish'
p550
aS'fox news'
p551
aS'frances'
p552
aS'friend zone'
p553
aS'fangirl'
p554
aS'ftw'
p555
aS'feminazi'
p556
aS'filipino'
p557
aS'family guy'
p558
aS'fob'
p559
aS'friday'
p560
aS'fml'
p561
aS'faith'
p562
aS'flip'
p563
aS'frank'
p564
aS'fugly'
p565
aS'face'
p566
aS'footballs'
p567
aS'fudge packer'
p568
aS'fuckface'
p569
aS'fail'
p570
aS'fine'
p571
aS'fake'
p572
aS'fuckstick'
p573
aS'freedom fries'
p574
aS'fubar'
p575
aS'fleek'
p576
aS'fun'
p577
aS'fap'
p578
aS'foshizzle'
p579
aS'fire'
p580
aS'faghag'
p581
aS'fanboy'
p582
aS'family'
p583
aS'fox'
p584
aS'firefox'
p585
aS'fucking'
p586
aS'freedom'
p587
aS'french'
p588
aS'feet'
p589
aS'front butt'
p590
aS'fcc'
p591
aS'fatass'
p592
aS'friends with benefits'
p593
aS'fuckgirl'
p594
aS'futurama'
p595
aS'fo&apos; shizzle my nizzle'
p596
aS'fucker'
p597
aS'flake'
p598
aS'fandoms'
p599
aS'fo sho'
p600
aS'food'
p601
aS'foreskins'
p602
aS'finger'
p603
aS'flow'
p604
aS'fuckass'
p605
aS'fresh'
p606
aS'fergie'
p607
aS'fucked'
p608
aS'fly'
p609
aS'fruitbooter'
p610
aS'fire crotch'
p611
aS'fuck-buddy'
p612
aS'f.a.f'
p613
aS'fuck you'
p614
aS'fedorable'
p615
aS'freddie mercury'
p616
aS'faded'
p617
aS'freshman'
p618
aS'frank iero'
p619
aS'flip-flop'
p620
aS'fidget spinner'
p621
aS'fred'
p622
aS'fuckwit'
p623
aS'fuck a duck'
p624
aS'fucknut'
p625
aS'fit'
p626
aS'fabs'
p627
aS'freak'
p628
aS'fatty'
p629
aS'flamer'
p630
aS'facepalm'
p631
aS'furby'
p632
aS'fun bags'
p633
aS'george w. bush'
p634
aS'god'
p635
aS'goth'
p636
aS'georgebush'
p637
aS'green day'
p638
aS'ginger'
p639
aS'g.a.y.'
p640
aS'g.i.r.l.'
p641
aS'gerard way'
p642
aS'gangsta'
p643
aS'guido'
p644
aS'good charlotte'
p645
aS'g-unit'
p646
aS'girlfriend'
p647
aS'grace'
p648
aS'ghetto'
p649
aS'gangster'
p650
aS'geek'
p651
aS'goons'
p652
aS'gypsy'
p653
aS'greens'
p654
aS'german'
p655
aS'gold digger'
p656
aS'gun control'
p657
aS'gabby'
p658
aS'google'
p659
aS'grunger'
p660
aS'g-spot'
p661
aS'greg'
p662
aS'georgia'
p663
aS'goober'
p664
aS'gay marriage'
p665
aS'guitar'
p666
aS'germany'
p667
aS'goat'
p668
aS'government'
p669
aS'gooch'
p670
aS'g'
p671
aS'grinding'
p672
aS'golf'
p673
aS'guns n&apos; roses'
p674
aS'game'
p675
aS'gary'
p676
aS'gwen stefani'
p677
aS'grundle'
p678
aS'grind'
p679
aS'gavin'
p680
aS'greebo'
p681
aS'gun'
p682
aS'gorgeous'
p683
aS'gank'
p684
aS'gabe'
p685
aS'growler'
p686
aS'global warming'
p687
aS'ghost'
p688
aS'guitar hero'
p689
aS'gothic'
p690
aS'grits'
p691
aS'gat'
p692
aS'gunt'
p693
aS'george carlin'
p694
aS'glomp'
p695
aS'gerbil'
p696
aS'greek'
p697
aS'grammar nazi'
p698
aS'gg'
p699
aS'gamer'
p700
aS'goose'
p701
aS'grapes'
p702
aS'gas'
p703
aS'gringo'
p704
aS'gilf'
p705
aS'gd'
p706
aS'gash'
p707
aS'guy'
p708
aS'gabriel'
p709
aS'grammar'
p710
aS'gina'
p711
aS'gabrielle'
p712
aS'gucci'
p713
aS'george'
p714
aS'graffiti'
p715
aS'ghosting'
p716
aS'geometry'
p717
aS'greenwich'
p718
aS'gdi'
p719
aS'glossy taco'
p720
aS'gino'
p721
aS'grunt'
p722
aS'gaydar'
p723
aS'grant'
p724
aS'gamecube'
p725
aS'g string'
p726
aS'gimp'
p727
aS'genesis'
p728
aS'gentleman'
p729
aS'grill'
p730
aS'gangbang'
p731
aS'golden showers'
p732
aS'hipster'
p733
aS'high school'
p734
aS'homework'
p735
aS'hot topic'
p736
aS'hannah'
p737
aS'horny'
p738
aS'hilary duff'
p739
aS'hater'
p740
aS'hell'
p741
aS'humans'
p742
aS'hella-'
p743
aS'hollaback girl'
p744
aS'hollister'
p745
aS'hannah montana'
p746
aS'halo'
p747
aS'hillary clinton'
p748
aS'habbo hotel'
p749
aS'harry potter'
p750
aS'hope'
p751
aS'hoe'
p752
aS'head'
p753
aS'heather'
p754
aS'hot'
p755
aS'ho'
p756
aS'hood rat'
p757
aS'high'
p758
aS'haley'
p759
aS'hitler'
p760
aS'hick'
p761
aS'homophobe'
p762
aS'holly'
p763
aS'hunter'
p764
aS'hentai'
p765
aS'heart broken'
p766
aS'hip hop'
p767
aS'h.a.m.'
p768
aS'hypocrite'
p769
aS'handjob'
p770
aS'hippies'
p771
aS'halo 2'
p772
aS'hippie'
p773
aS'homosexual'
p774
aS'halloween'
p775
aS'heavy metal'
p776
aS'hailey'
p777
aS'hate'
p778
aS'harry'
p779
aS'hockey'
p780
aS'halo 3'
p781
aS'high school musical'
p782
aS'hardcore'
p783
aS'homophobia'
p784
aS'hummer'
p785
aS'hyphy'
p786
aS'hollister co.'
p787
aS'henry'
p788
aS'hookup'
p789
aS'hardcore dancing'
p790
aS'hot pocket'
p791
aS'homo'
p792
aS'heaven'
p793
aS'harambe'
p794
aS'homewrecker'
p795
aS'hi'
p796
aS'hun'
p797
aS'hood'
p798
aS'him'
p799
aS'herb'
p800
aS'honda'
p801
aS'heart'
p802
aS'hero'
p803
aS'happiness'
p804
aS'hawthorne heights'
p805
aS'huggles'
p806
aS'hello'
p807
aS'horse'
p808
aS'hamster'
p809
aS'hit'
p810
aS'hard'
p811
aS'honky'
p812
aS'hug'
p813
aS'half life 2'
p814
aS'homestar runner'
p815
aS'homsar'
p816
aS'hack'
p817
aS'harry styles'
p818
aS'hot mess'
p819
aS'hotbox'
p820
aS'homer simpson'
p821
aS'homophobic'
p822
aS'hoebag'
p823
aS'hooker'
p824
aS'hob knocker'
p825
aS'holocaust'
p826
aS'hacker'
p827
aS'hillary'
p828
aS'hook'
p829
aS'howard dean'
p830
aS'happy'
p831
aS'hanging wedgie'
p832
aS'internet'
p833
aS'italian'
p834
aS'ipod'
p835
aS'iron maiden'
p836
aS'irish'
p837
aS'ian'
p838
aS'israel'
p839
aS'islam'
p840
aS'internet explorer'
p841
aS'iphone'
p842
aS'ib'
p843
aS'indie kid'
p844
aS'isabel'
p845
aS'invader zim'
p846
aS'idiot'
p847
aS'incest'
p848
aS'i love you'
p849
aS'insane clown posse'
p850
aS'ish'
p851
aS'isabella'
p852
aS'icp'
p853
aS'inuyasha'
p854
aS'illuminati'
p855
aS'indiana'
p856
aS'izzy'
p857
aS'incubus'
p858
aS'isaac'
p859
aS'irony'
p860
aS'isis'
p861
aS'ireland'
p862
aS'india'
p863
aS'iraq'
p864
aS'ipad'
p865
aS'ignorant'
p866
aS'italy'
p867
aS'immature'
p868
aS'indian'
p869
aS'ivan'
p870
aS'icarly'
p871
aS'isaiah'
p872
aS'it'
p873
aS'ice cube'
p874
aS'ice'
p875
aS'inbred'
p876
aS'instagram'
p877
aS'ice creams'
p878
aS'insomnia'
p879
aS'iran'
p880
aS'idaho'
p881
aS'intelligent design'
p882
aS'im rick james bitch'
p883
aS'ily'
p884
aS'izzle'
p885
aS'immortal technique'
p886
aS'ivy'
p887
aS'insanity'
p888
aS'idgaf'
p889
aS'in love'
p890
aS'illinois'
p891
aS'idk'
p892
aS'iron man'
p893
aS'isabelle'
p894
aS'iowa'
p895
aS'in flames'
p896
aS'ikea'
p897
aS'innit'
p898
aS'ira'
p899
aS'irish-american'
p900
aS'itunes'
p901
aS'indianapolis'
p902
aS'imvu'
p903
aS'iris'
p904
aS'ignorance'
p905
aS'ike'
p906
aS'irc'
p907
aS'it is what it is'
p908
aS'iceland'
p909
aS'i'
p910
aS'imogen'
p911
aS'ill'
p912
aS'iono'
p913
aS'irene'
p914
aS'irs'
p915
aS'in-n-out'
p916
aS'itachi'
p917
aS'introvert'
p918
aS'iced'
p919
aS'intern'
p920
aS'irregardless'
p921
aS'illiterate'
p922
aS'ignoranus'
p923
aS'inside joke'
p924
aS'i&apos;m game'
p925
aS'idiocracy'
p926
aS'illegal'
p927
aS'i&apos;m fine...'
p928
aS'is'
p929
aS'ignant'
p930
aS'independent'
p931
aS'justin bieber'
p932
aS'jew'
p933
aS'juggalo'
p934
aS'jesus'
p935
aS'jordan'
p936
aS'josh'
p937
aS'jelly bracelets'
p938
aS'jame'
p939
aS'jock'
p940
aS'johnny depp'
p941
aS'ja rule'
p942
aS'jakes'
p943
aS'jack'
p944
aS'justin'
p945
aS'jason'
p946
aS'jimmies'
p947
aS'jennifer'
p948
aS'jimi hendrix'
p949
aS'jessica'
p950
aS'joe'
p951
aS'john'
p952
aS'julian casablancas'
p953
aS'julia'
p954
aS'jacob'
p955
aS'jade'
p956
aS'jesse'
p957
aS'jay-z'
p958
aS'joey'
p959
aS'jonathan'
p960
aS'joseph'
p961
aS'jasmine'
p962
aS'jamie'
p963
aS'joshua'
p964
aS'jade puget'
p965
aS'justin beiber'
p966
aS'jenna'
p967
aS'jehovahs witnesses'
p968
aS'jared'
p969
aS'jazz'
p970
aS'jose'
p971
aS'j.a.p.'
p972
aS'julie'
p973
aS'juggalette'
p974
aS'jersey shore'
p975
aS'jizz'
p976
aS'jack sparrow'
p977
aS'japan'
p978
aS'job'
p979
aS'jerk'
p980
aS'julian'
p981
aS'jesus christ'
p982
aS'jank'
p983
aS'j lo'
p984
aS'jeremy'
p985
aS'jessica simpson'
p986
aS'jeff'
p987
aS'jams'
p988
aS'juice'
p989
aS'john kerry'
p990
aS'juan'
p991
aS'joke'
p992
aS'jail bait'
p993
aS'jerry'
p994
aS'jew fro'
p995
aS'justin timberlake'
p996
aS'jackass'
p997
aS'juggalo/juggalette'
p998
aS'jack off'
p999
aS'jenny'
p1000
aS'josie'
p1001
aS'johnny'
p1002
aS'jets'
p1003
aS'jim'
p1004
aS'jackson'
p1005
aS'jib'
p1006
aS'john lennon'
p1007
aS'jay'
p1008
aS'jacking off'
p1009
aS'jeep'
p1010
aS'juicy'
p1011
aS'john cena'
p1012
aS'jersey'
p1013
aS'jayden'
p1014
aS'joel'
p1015
aS'jimmy page'
p1016
aS'joint'
p1017
aS'jumpoff'
p1018
aS'jag'
p1019
aS'jewbag'
p1020
aS'jeffrey'
p1021
aS'janky'
p1022
aS'jugs'
p1023
aS'jackie'
p1024
aS'jelly'
p1025
aS'jihad'
p1026
aS'jawn'
p1027
aS'jit'
p1028
aS'jen'
p1029
aS'jump'
p1030
aS'juno'
p1031
aS'katie'
p1032
aS'kanye west'
p1033
aS'kevin'
p1034
aS'kyle'
p1035
aS'kurt cobain'
p1036
aS'kayla'
p1037
aS'kelly'
p1038
aS'k'
p1039
aS'kkk'
p1040
aS'kelsey'
p1041
aS'kfc'
p1042
aS'kool aid'
p1043
aS'kate'
p1044
aS'kicks'
p1045
aS'kiss'
p1046
aS'katherine'
p1047
aS'ke$ha'
p1048
aS'kanye'
p1049
aS'kaylee'
p1050
aS'kobe!'
p1051
aS'kittens'
p1052
aS'kaitlyn'
p1053
aS'karma'
p1054
aS'katelyn'
p1055
aS'katrina'
p1056
aS'kys'
p1057
aS'kids'
p1058
aS'kai'
p1059
aS'keith'
p1060
aS'kylie'
p1061
aS'kidz bop'
p1062
aS'ku klux klan'
p1063
aS'kimberly'
p1064
aS'karen'
p1065
aS'kardashian'
p1066
aS'kendall'
p1067
aS'korn'
p1068
aS'k-fed'
p1069
aS'kentucky'
p1070
aS'kim'
p1071
aS'kewl'
p1072
aS'kinky'
p1073
aS'kara'
p1074
aS'kristen'
p1075
aS'kenny'
p1076
aS'kat'
p1077
aS'kazaa'
p1078
aS'katy perry'
p1079
aS'kill'
p1080
aS'kobe bryant'
p1081
aS'kim kardashian'
p1082
aS'karina'
p1083
aS'kristina'
p1084
aS'kirk'
p1085
aS'karl'
p1086
aS'kenneth'
p1087
aS'king'
p1088
aS'kiwi'
p1089
aS'knacker'
p1090
aS'kari'
p1091
aS'kira'
p1092
aS'key'
p1093
aS'kristin'
p1094
aS'kanye&apos;d'
p1095
aS'kiki'
p1096
aS'kk'
p1097
aS'keemstar'
p1098
aS'kik'
p1099
aS'kennedy'
p1100
aS'knob'
p1101
aS'kitty'
p1102
aS'krystal'
p1103
aS'kaleb'
p1104
aS'katy'
p1105
aS'kathleen'
p1106
aS'kendra'
p1107
aS'kike'
p1108
aS'kmart'
p1109
aS'k town'
p1110
aS'kris'
p1111
aS'kevin federline'
p1112
aS'kathryn'
p1113
aS'kirsten'
p1114
aS'kali'
p1115
aS'korean'
p1116
aS'kingdom hearts'
p1117
aS'kawaii'
p1118
aS'ken'
p1119
aS'kopite'
p1120
aS'krista'
p1121
aS'kirby'
p1122
aS'kansas'
p1123
aS'kaitlin'
p1124
aS'kyla'
p1125
aS'kook'
p1126
aS'kiana'
p1127
aS'keegan'
p1128
aS'karl rove'
p1129
aS'k.i.t.'
p1130
aS'kim jong il'
p1131
aS'l.o.v.e.'
p1132
aS'lauren'
p1133
aS'life'
p1134
aS'liberal'
p1135
aS'lol'
p1136
aS'lil wayne'
p1137
aS'lady gaga'
p1138
aS'lacrosse'
p1139
aS'logan'
p1140
aS'luke'
p1141
aS'linux'
p1142
aS'lloyd banks'
p1143
aS'lily'
p1144
aS'los angeles'
p1145
aS'linkin park'
p1146
aS'liam'
p1147
aS'lucy'
p1148
aS'lucas'
p1149
aS'lesbian'
p1150
aS'leah'
p1151
aS'libertarian'
p1152
aS'led zeppelin'
p1153
aS'long island'
p1154
aS'lad'
p1155
aS'lemon'
p1156
aS'lindsay lohan'
p1157
aS'london'
p1158
aS'laura'
p1159
aS'lisa'
p1160
aS'limp bizkit'
p1161
aS'lydia'
p1162
aS'link'
p1163
aS'like'
p1164
aS'loner'
p1165
aS'lexi'
p1166
aS'lit'
p1167
aS'levi'
p1168
aS'lebron'
p1169
aS'las vegas'
p1170
aS'lsd'
p1171
aS'l'
p1172
aS'lebron james'
p1173
aS'lost'
p1174
aS'leo'
p1175
aS'lawl'
p1176
aS'lame'
p1177
aS'legit'
p1178
aS'l.a.x.'
p1179
aS'luigi'
p1180
aS'lmao'
p1181
aS'latina'
p1182
aS'lana'
p1183
aS'loser'
p1184
aS'lush'
p1185
aS'limewire'
p1186
aS'lindsey'
p1187
aS'lurker'
p1188
aS'label'
p1189
aS'lumberjack'
p1190
aS'lexie'
p1191
aS'legend'
p1192
aS'lick'
p1193
aS'lena'
p1194
aS'lilly'
p1195
aS'lasterday'
p1196
aS'loan shark'
p1197
aS'lil jon'
p1198
aS'lil fizz'
p1199
aS'lindsay'
p1200
aS'lamb of god'
p1201
aS'larry'
p1202
aS'luis'
p1203
aS'lust'
p1204
aS'libtard'
p1205
aS'lag'
p1206
aS'lmfao'
p1207
aS'layla'
p1208
aS'loose'
p1209
aS'louis'
p1210
aS'liar'
p1211
aS'legs'
p1212
aS'leslie'
p1213
aS'louisiana'
p1214
aS'lebanon'
p1215
aS'lee'
p1216
aS'load'
p1217
aS'lolz'
p1218
aS'lug'
p1219
aS'lala'
p1220
aS'lakers'
p1221
aS'lazy'
p1222
aS'landmine'
p1223
aS'let&apos;s just be friends'
p1224
aS'linsanity'
p1225
aS'lego'
p1226
aS'landon'
p1227
aS'lola'
p1228
aS'leet'
p1229
aS'lo lo'
p1230
aS'lizzie'
p1231
aS'mtv'
p1232
aS'myspace'
p1233
aS'milves'
p1234
aS'mcdonald&apos;s'
p1235
aS'my chemical romance'
p1236
aS'metrosexual'
p1237
aS'michael'
p1238
aS'middle school'
p1239
aS'matt'
p1240
aS'marijuana'
p1241
aS'mormon'
p1242
aS'music'
p1243
aS'meh'
p1244
aS'matthew'
p1245
aS'metalhead'
p1246
aS'moobs'
p1247
aS'miley cyrus'
p1248
aS'math'
p1249
aS'melissa'
p1250
aS'mexican'
p1251
aS'morgan'
p1252
aS'money'
p1253
aS'man'
p1254
aS'molly'
p1255
aS'metal'
p1256
aS'madison'
p1257
aS'masturbate'
p1258
aS'mike'
p1259
aS'marine'
p1260
aS'megan'
p1261
aS'muslim'
p1262
aS'metallica'
p1263
aS'mia'
p1264
aS'moosh'
p1265
aS'marriage'
p1266
aS'max'
p1267
aS'marching band'
p1268
aS'man whore'
p1269
aS'michelle'
p1270
aS'michael jackson'
p1271
aS'masturbation'
p1272
aS'maria'
p1273
aS'marilyn manson'
p1274
aS'mary'
p1275
aS'mom'
p1276
aS'mother fucker'
p1277
aS'monkey'
p1278
aS'mark'
p1279
aS'muffin'
p1280
aS'muff'
p1281
aS'mustang'
p1282
aS'mangina'
p1283
aS'm-o'
p1284
aS'manboobs'
p1285
aS'meow'
p1286
aS'meep'
p1287
aS'mosher'
p1288
aS'minecraft'
p1289
aS'michigan'
p1290
aS'mason'
p1291
aS'mud shark'
p1292
aS'mackenzie'
p1293
aS'maggie'
p1294
aS'maddie'
p1295
aS'mullet'
p1296
aS'men'
p1297
aS'mac'
p1298
aS'marissa'
p1299
aS'mob'
p1300
aS'muse'
p1301
aS'modern warfare 2'
p1302
aS'maplestory'
p1303
aS'monica'
p1304
aS'mindfuck'
p1305
aS'mario'
p1306
aS'mofo'
p1307
aS'milkshake'
p1308
aS'moron'
p1309
aS'muscle car'
p1310
aS'maryland'
p1311
aS'mcfly'
p1312
aS'marco'
p1313
aS'macintosh'
p1314
aS'muffin top'
p1315
aS'moose'
p1316
aS'myspace whore'
p1317
aS'mug'
p1318
aS'miranda'
p1319
aS'martin'
p1320
aS'melanie'
p1321
aS'maya'
p1322
aS'meme'
p1323
aS'melbourne'
p1324
aS'moose knuckles'
p1325
aS'mcjob'
p1326
aS'megadeth'
p1327
aS'meathead'
p1328
aS'maggot'
p1329
aS'munchies'
p1330
aS'mra'
p1331
aS'nigger'
p1332
aS'nerd'
p1333
aS'nigga'
p1334
aS'nick'
p1335
aS'nicole'
p1336
aS'new jersey'
p1337
aS'noob'
p1338
aS'nirvana'
p1339
aS'nu-metal'
p1340
aS'neopets'
p1341
aS'nascar'
p1342
aS'niglet'
p1343
aS'nathan'
p1344
aS'noah'
p1345
aS'nickelodeon'
p1346
aS'ninja'
p1347
aS'naruto'
p1348
aS'natalie'
p1349
aS'nickelback'
p1350
aS'n00b'
p1351
aS'nice guy'
p1352
aS'new york'
p1353
aS'nas'
p1354
aS'no homo'
p1355
aS'new zealand'
p1356
aS'nate'
p1357
aS'neds'
p1358
aS'nub'
p1359
aS'new york city'
p1360
aS'nig nog'
p1361
aS'nina'
p1362
aS'no'
p1363
aS'nugget'
p1364
aS'nigglet'
p1365
aS'netflix and chill'
p1366
aS'nut'
p1367
aS'nazi'
p1368
aS'nwa'
p1369
aS'normal'
p1370
aS'nintendo'
p1371
aS'napoleon dynamite'
p1372
aS'nova'
p1373
aS'nicholas'
p1374
aS'naacp'
p1375
aS'neocon'
p1376
aS'nonconformist'
p1377
aS'nug'
p1378
aS'nigger faggot'
p1379
aS'northern virginia'
p1380
aS'naomi'
p1381
aS'noodle'
p1382
aS'natasha'
p1383
aS'nikki'
p1384
aS'nadia'
p1385
aS'narutard'
p1386
aS'nice'
p1387
aS'nipples'
p1388
aS'numpty'
p1389
aS'nofx'
p1390
aS'north korea'
p1391
aS'nuke'
p1392
aS'new york yankees'
p1393
aS'new orleans'
p1394
aS'nig'
p1395
aS'neo-nazi'
p1396
aS'nip'
p1397
aS'navy'
p1398
aS'nigger rich'
p1399
aS'nothing'
p1400
aS'nba'
p1401
aS'nambla'
p1402
aS'nympho'
p1403
aS'narcissist'
p1404
aS'noob tube'
p1405
aS'nut huggers'
p1406
aS'new canaan'
p1407
aS'nappy headed ho'
p1408
aS'nicki minaj'
p1409
aS'nutella'
p1410
aS'new hampshire'
p1411
aS'normie'
p1412
aS'nerdfighters'
p1413
aS'naperville'
p1414
aS'nick jonas'
p1415
aS'new years eve'
p1416
aS'native americans'
p1417
aS'noice'
p1418
aS'numb nut'
p1419
aS'north carolina'
p1420
aS'n&apos;at'
p1421
aS'negro'
p1422
aS'nemo'
p1423
aS'naggers'
p1424
aS'nfl'
p1425
aS'nsfw'
p1426
aS'nathaniel'
p1427
aS'needle dick'
p1428
aS'new york minute'
p1429
aS'nyan cat'
p1430
aS'nasty'
p1431
aS'obama'
p1432
aS'olivia'
p1433
aS'orgasm'
p1434
aS'one direction'
p1435
aS'osama bin laden'
p1436
aS'oreo'
p1437
aS'og'
p1438
aS'orgy'
p1439
aS'otp'
p1440
aS'otaku'
p1441
aS'oscar'
p1442
aS'ohio'
p1443
aS'overrated'
p1444
aS'omg'
p1445
aS'owned'
p1446
aS'oc'
p1447
aS'orange'
p1448
aS'omegle'
p1449
aS'opeth'
p1450
aS'obamanation'
p1451
aS'oprah'
p1452
aS'oxymoron'
p1453
aS'owen'
p1454
aS'op'
p1455
aS'oi'
p1456
aS'one'
p1457
aS'oregon'
p1458
aS'oasis'
p1459
aS'oklahoma'
p1460
aS'o rly'
p1461
aS'od'
p1462
aS'oral sex'
p1463
aS'opps'
p1464
aS'oakville'
p1465
aS'opinions'
p1466
aS'onision'
p1467
aS'oh'
p1468
aS'obese'
p1469
aS'oops'
p1470
aS'olsen twins'
p1471
aS'ocd'
p1472
aS'onion'
p1473
aS'outkast'
p1474
aS'o.o'
p1475
aS'o.j. simpson'
p1476
aS'oliver'
p1477
aS'oj'
p1478
aS'optimus prime'
p1479
aS'outside'
p1480
aS'ok'
p1481
aS'oblivion'
p1482
aS'otherkin'
p1483
aS'oh noes'
p1484
aS'owl'
p1485
aS'omgwtfbbq'
p1486
aS'o'
p1487
aS'ozzy'
p1488
aS'orange county'
p1489
aS'obamacare'
p1490
aS'obamanomics'
p1491
aS'omfg'
p1492
aS'outcast'
p1493
aS'own'
p1494
aS'orlando bloom'
p1495
aS'orgasmic'
p1496
aS'osama'
p1497
aS'on fleek'
p1498
aS'owl city'
p1499
aS'oompa loompa'
p1500
aS'oil'
p1501
aS'old school'
p1502
aS'octopus'
p1503
aS'omar'
p1504
aS'orlando'
p1505
aS'okay'
p1506
aS'off the chain'
p1507
aS'one hit wonder'
p1508
aS'ozzy osbourne'
p1509
aS'old'
p1510
aS'ob'
p1511
aS'occupy wall street'
p1512
aS'omj'
p1513
aS'o_o'
p1514
aS'opera'
p1515
aS'oh shit'
p1516
aS'ollie'
p1517
aS'open relationship'
p1518
aS'oh snap'
p1519
aS'oli sykes'
p1520
aS'o.a.r.'
p1521
aS'oof'
p1522
aS'oak park'
p1523
aS'open minded'
p1524
aS'oxycontin'
p1525
aS'octopussy'
p1526
aS'one upper'
p1527
aS'ouija board'
p1528
aS'oz'
p1529
aS'oaf'
p1530
aS'paris hilton'
p1531
aS'penis'
p1532
aS'preps'
p1533
aS'posers'
p1534
aS'punk'
p1535
aS'porn'
p1536
aS'poop'
p1537
aS'pussy'
p1538
aS'pikey'
p1539
aS'political correctness'
p1540
aS'player'
p1541
aS'pms'
p1542
aS'pop'
p1543
aS'pussy whipped'
p1544
aS'preppy'
p1545
aS'period'
p1546
aS'pimp'
p1547
aS'pokemon'
p1548
aS'peta'
p1549
aS'paige'
p1550
aS'perfect'
p1551
aS'parents'
p1552
aS'panic at the disco'
p1553
aS'politics'
p1554
aS'patrick'
p1555
aS'pig'
p1556
aS'police'
p1557
aS'porchmonkey'
p1558
aS'pie'
p1559
aS'palin'
p1560
aS'potato'
p1561
aS'pansexual'
p1562
aS'persian'
p1563
aS'pot head'
p1564
aS'prostitots'
p1565
aS'peace'
p1566
aS'pink floyd'
p1567
aS'politician'
p1568
aS'pwn'
p1569
aS'punk rock'
p1570
aS'pizza'
p1571
aS'pwned'
p1572
aS'peter'
p1573
aS'po po'
p1574
aS'psp'
p1575
aS'poo'
p1576
aS'philadelphia'
p1577
aS'pop music'
p1578
aS'pancake'
p1579
aS'paul'
p1580
aS'procrastination'
p1581
aS'prom'
p1582
aS'phat'
p1583
aS'panda'
p1584
aS'pepsi'
p1585
aS'p diddy'
p1586
aS'people'
p1587
aS'penguin'
p1588
aS'pineapples'
p1589
aS'popular'
p1590
aS'prin cess'
p1591
aS'p.o.'
p1592
aS'pop-punk'
p1593
aS'perfection'
p1594
aS'pot'
p1595
aS'prostitute'
p1596
aS'pervert'
p1597
aS'prick'
p1598
aS'poptart'
p1599
aS'pseudo-intellectual'
p1600
aS'pirate'
p1601
aS'plug'
p1602
aS'pete wentz'
p1603
aS'pos'
p1604
aS'pc'
p1605
aS'party'
p1606
aS'planking'
p1607
aS'peach'
p1608
aS'ps3'
p1609
aS'poseur'
p1610
aS'peeps'
p1611
aS'pikachu'
p1612
aS'poontang'
p1613
aS'puppy'
p1614
aS'playstation 3'
p1615
aS'pedophile'
p1616
aS'pennsylvania'
p1617
aS'phoenix'
p1618
aS'poland'
p1619
aS'pain'
p1620
aS'patriot'
p1621
aS'phoebe'
p1622
aS'pac-man'
p1623
aS'prude'
p1624
aS'paintball'
p1625
aS'philosophy'
p1626
aS'pants'
p1627
aS'peng'
p1628
aS'pickle'
p1629
aS'poot'
p1630
aS'queef'
p1631
aS'queen'
p1632
aS'qwertyuiopasdfghjklzxcvbnm'
p1633
aS'q'
p1634
aS'qwerty'
p1635
aS'queer'
p1636
aS'quizilla'
p1637
aS'quarter life crisis'
p1638
aS'quinn'
p1639
aS'quagmire'
p1640
aS'quim'
p1641
aS'quad'
p1642
aS'qt'
p1643
aS'q.e.d.'
p1644
aS'quincy'
p1645
aS'quack'
p1646
aS'quentin tarantino'
p1647
aS'q-tip'
p1648
aS'quiff'
p1649
aS'queens of the stone age'
p1650
aS'quarter'
p1651
aS'quebec'
p1652
aS'quief'
p1653
aS'qft'
p1654
aS'queer bait'
p1655
aS'qq'
p1656
aS'quick scope'
p1657
aS'qp'
p1658
aS'quickie'
p1659
aS'queenie'
p1660
aS'quicktime'
p1661
aS'quirky'
p1662
aS'quimby'
p1663
aS'queensryche'
p1664
aS'quarterback'
p1665
aS'quinton'
p1666
aS'qwop'
p1667
aS'quaff'
p1668
aS'quotev'
p1669
aS'quiche'
p1670
aS'qb'
p1671
aS'qwertyuiop'
p1672
aS'quiznos'
p1673
aS'queen bee'
p1674
aS'quail'
p1675
aS'quality'
p1676
aS'qazwsxedcrfvtgbyhnujmikolp'
p1677
aS'quest'
p1678
aS'quality control'
p1679
aS'quark'
p1680
aS'quentin'
p1681
aS'quang'
p1682
aS'queet'
p1683
aS'queerdo'
p1684
aS'quality vs. quantity'
p1685
aS'quin'
p1686
aS'quint'
p1687
aS'quinn allman'
p1688
aS'quay'
p1689
aS'quat'
p1690
aS'queerbag'
p1691
aS'que'
p1692
aS'quif'
p1693
aS'quid'
p1694
aS'quan'
p1695
aS'quicksilver'
p1696
aS'qilf'
p1697
aS'quag'
p1698
aS'quaffle'
p1699
aS'qwert'
p1700
aS'quit'
p1701
aS'qweef'
p1702
aS'quaf'
p1703
aS'quaker'
p1704
aS'quyen'
p1705
aS'quinten'
p1706
aS'queermo'
p1707
aS'quake'
p1708
aS'quince'
p1709
aS'quitter'
p1710
aS'quare'
p1711
aS'quip'
p1712
aS'quinnipiac university'
p1713
aS'quakertown'
p1714
aS'quarf'
p1715
aS'queer as folk'
p1716
aS'quesadilla'
p1717
aS'qc'
p1718
aS'quantum'
p1719
aS'quad-sexual'
p1720
aS'quran'
p1721
aS'quinlan'
p1722
aS'quicky'
p1723
aS'qi'
p1724
aS'qatar'
p1725
aS'queff'
p1726
aS'quiz'
p1727
aS'quap'
p1728
aS'qtf'
p1729
aS'quatch'
p1730
aS'rap'
p1731
aS'republican'
p1732
aS'runescape'
p1733
aS'redneck'
p1734
aS'religion'
p1735
aS'ryan'
p1736
aS'rebecca black'
p1737
aS'rachel'
p1738
aS'rape'
p1739
aS'ricer'
p1740
aS'racist'
p1741
aS'rawr'
p1742
aS'rock'
p1743
aS'ratchet'
p1744
aS'racism'
p1745
aS'red sox'
p1746
aS'retards'
p1747
aS'rusty trombone'
p1748
aS'random'
p1749
aS'rugby'
p1750
aS'riaa'
p1751
aS'robert'
p1752
aS'riley'
p1753
aS'rim job'
p1754
aS'rush'
p1755
aS'ramen'
p1756
aS'reds'
p1757
aS'rake yohn'
p1758
aS'rice burner'
p1759
aS'reggaeton'
p1760
aS'rebecca'
p1761
aS'raven'
p1762
aS'redhead'
p1763
aS'reality tv'
p1764
aS'russian'
p1765
aS'r kelly'
p1766
aS'rat'
p1767
aS'ripped'
p1768
aS'ruby'
p1769
aS'rip'
p1770
aS'rush limbaugh.'
p1771
aS'rihanna'
p1772
aS'rammstein'
p1773
aS'russia'
p1774
aS'renee'
p1775
aS'rice'
p1776
aS'rosie'
p1777
aS'rofl copter'
p1778
aS'randy'
p1779
aS'roblox'
p1780
aS'r.o.b.'
p1781
aS'rosie o&apos;donnell'
p1782
aS'retarded'
p1783
aS'rachael'
p1784
aS'rolls'
p1785
aS'ross'
p1786
aS'rad'
p1787
aS'rose'
p1788
aS'rack'
p1789
aS'rag'
p1790
aS'ronald reagan'
p1791
aS'red wings'
p1792
aS'rockstar'
p1793
aS'ron paul'
p1794
aS'rofl'
p1795
aS'rick roll'
p1796
aS'robert pattinson'
p1797
aS'relationships'
p1798
aS'rhode island'
p1799
aS'raw'
p1800
aS'ramones'
p1801
aS'ricky'
p1802
aS'richard!'
p1803
aS'rainbow party'
p1804
aS'ronald mcdonald'
p1805
aS'radiohead'
p1806
aS'rock n roll'
p1807
aS'rise against'
p1808
aS'respect'
p1809
aS'robin'
p1810
aS'romney'
p1811
aS'reem'
p1812
aS'rabbits'
p1813
aS'rollin'
p1814
aS'rage'
p1815
aS'rigs'
p1816
aS'rice rocket'
p1817
aS'rent'
p1818
aS'robyn'
p1819
aS'ruben'
p1820
aS'roman'
p1821
aS'ram'
p1822
aS'rapist'
p1823
aS'rupert grint'
p1824
aS'red bull'
p1825
aS'rick rolled'
p1826
aS'rule 34'
p1827
aS'rage against the machine'
p1828
aS'rolling stone'
p1829
aS'robot'
p1830
aS'school'
p1831
aS'sex'
p1832
aS'shart'
p1833
aS'scene'
p1834
aS'swag'
p1835
aS'sarah'
p1836
aS'scene kids'
p1837
aS'slut'
p1838
aS'soccer mom'
p1839
aS'slipknot'
p1840
aS'sam'
p1841
aS'soulja boy'
p1842
aS'straight-edge'
p1843
aS'simple plan'
p1844
aS'south park'
p1845
aS'sarah palin'
p1846
aS'smarterchild'
p1847
aS'soccer'
p1848
aS'scientology'
p1849
aS'shit'
p1850
aS'stoner'
p1851
aS'sydney'
p1852
aS'stephanie'
p1853
aS'samantha'
p1854
aS'system of a down'
p1855
aS'suicide'
p1856
aS'skeet'
p1857
aS'snowflake'
p1858
aS'sell out'
p1859
aS'sean'
p1860
aS'sexy'
p1861
aS'sara'
p1862
aS'scott'
p1863
aS'sleep'
p1864
aS'soulmate'
p1865
aS'sophie'
p1866
aS'satan'
p1867
aS'skater'
p1868
aS'skank'
p1869
aS'starbucks'
p1870
aS'suv'
p1871
aS'savage'
p1872
aS'scrubs'
p1873
aS'sabrina'
p1874
aS'steven'
p1875
aS'shank'
p1876
aS'shelby'
p1877
aS'sublime'
p1878
aS'stoned'
p1879
aS'std'
p1880
aS'salty'
p1881
aS'smh'
p1882
aS'sophia'
p1883
aS'shannon'
p1884
aS'snitch'
p1885
aS'spongebob'
p1886
aS'squirrel'
p1887
aS'savannah'
p1888
aS'scotland'
p1889
aS'spam'
p1890
aS'slash'
p1891
aS'snap'
p1892
aS'stalker'
p1893
aS'stfu'
p1894
aS'sierra'
p1895
aS'spoon'
p1896
aS'snakes'
p1897
aS'stupid'
p1898
aS'smurf'
p1899
aS'summer'
p1900
aS'smash'
p1901
aS'strongbad'
p1902
aS'screamo'
p1903
aS'seattle'
p1904
aS'staten island'
p1905
aS'stephen'
p1906
aS'shane'
p1907
aS'spiderman'
p1908
aS'scouser'
p1909
aS'sheep'
p1910
aS'sebastian'
p1911
aS'star wars'
p1912
aS'sat'
p1913
aS'stereotype'
p1914
aS'slag'
p1915
aS'squid'
p1916
aS'ska'
p1917
aS'socialism'
p1918
aS'spongebob squarepants'
p1919
aS'shotgun'
p1920
aS'san diego'
p1921
aS'swamp donkey'
p1922
aS'sausage fest'
p1923
aS'swamp ass'
p1924
aS'swine flu'
p1925
aS'sweet'
p1926
aS'sand nigger'
p1927
aS'steve'
p1928
aS'stick'
p1929
aS'slayer'
p1930
aS'twilight'
p1931
aS'taylor'
p1932
aS'tool'
p1933
aS'tumblr'
p1934
aS'the beatles'
p1935
aS'tits'
p1936
aS'teeny bopper'
p1937
aS'taint'
p1938
aS'tyler'
p1939
aS'texas'
p1940
aS'townie'
p1941
aS'turkey'
p1942
aS'trump'
p1943
aS'tupac'
p1944
aS'tony blair'
p1945
aS'troll'
p1946
aS'thomas'
p1947
aS'taco bell'
p1948
aS'twat'
p1949
aS'the game'
p1950
aS'true love'
p1951
aS'tom'
p1952
aS'twitter'
p1953
aS'teenagers'
p1954
aS'time'
p1955
aS'teabag'
p1956
aS'that&apos;s what she said'
p1957
aS'tim'
p1958
aS'taylor swift'
p1959
aS'teacher'
p1960
aS'tony'
p1961
aS'turd burglar'
p1962
aS'tom cruise'
p1963
aS'thot'
p1964
aS'tight'
p1965
aS'tramp stamp'
p1966
aS'tara'
p1967
aS'toronto'
p1968
aS'thong'
p1969
aS'the used'
p1970
aS'teletubbies'
p1971
aS'tori'
p1972
aS'tommy'
p1973
aS'trick'
p1974
aS'tiffany'
p1975
aS'teabagger'
p1976
aS'the oc'
p1977
aS'townies'
p1978
aS'the simpsons'
p1979
aS'target'
p1980
aS'toyota'
p1981
aS'trolling'
p1982
aS'travis'
p1983
aS't.j.'
p1984
aS'thick'
p1985
aS'techno'
p1986
aS'trogdor'
p1987
aS'tab'
p1988
aS'trevor'
p1989
aS'trees'
p1990
aS'terrorist'
p1991
aS'turtles'
p1992
aS'toast'
p1993
aS'teabagging'
p1994
aS'the shit'
p1995
aS'taking back sunday'
p1996
aS'turd'
p1997
aS't.i.'
p1998
aS'tank'
p1999
aS'thundercunt'
p2000
aS'tard'
p2001
aS'tech n9ne'
p2002
aS'trap'
p2003
aS'try-hard'
p2004
aS'trinity'
p2005
aS'thug'
p2006
aS'tomboy'
p2007
aS'tea party'
p2008
aS'tea'
p2009
aS'tom brady'
p2010
aS'tiger woods'
p2011
aS'the strokes'
p2012
aS'tween'
p2013
aS'trance'
p2014
aS'troy'
p2015
aS'thirsty'
p2016
aS'that guy'
p2017
aS'tampon'
p2018
aS'twerk'
p2019
aS'the bible'
p2020
aS'tristan'
p2021
aS'timothy'
p2022
aS'trumpets'
p2023
aS'turk'
p2024
aS'teh'
p2025
aS'tanner'
p2026
aS'twinkie'
p2027
aS'twink'
p2028
aS'tri-sexual'
p2029
aS'tiger'
p2030
aS'urban dictionary'
p2031
aS'ugly'
p2032
aS'urbandictionary editors'
p2033
aS'unicorn'
p2034
aS'usa'
p2035
aS'usc'
p2036
aS'uber'
p2037
aS'urbandictionary.com'
p2038
aS'uggs'
p2039
aS'united states of america'
p2040
aS'ucla'
p2041
aS'ur mom'
p2042
aS'upper decker'
p2043
aS'utah'
p2044
aS'united states'
p2045
aS'urban outfitters'
p2046
aS'urban dick'
p2047
aS'unrequited love'
p2048
aS'u'
p2049
aS'u2'
p2050
aS'uva'
p2051
aS'ufo'
p2052
aS'undertale'
p2053
aS'union'
p2054
aS'umpa-lumpa'
p2055
aS'upstate new york'
p2056
aS'ups'
p2057
aS'ur'
p2058
aS'utica'
p2059
aS'unit'
p2060
aS'utopia'
p2061
aS'usmc'
p2062
aS'un'
p2063
aS'unique'
p2064
aS'uncle tom'
p2065
aS'undertaker'
p2066
aS'uranus'
p2067
aS'uh'
p2068
aS'underoath'
p2069
aS'uncyclopedia'
p2070
aS'uni'
p2071
aS'um'
p2072
aS'usy'
p2073
aS'ugh'
p2074
aS'up'
p2075
aS'ukraine'
p2076
aS'usher'
p2077
aS'user'
p2078
aS'unf'
p2079
aS'university'
p2080
aS'ud'
p2081
aS'ugg boots'
p2082
aS'ucsd'
p2083
aS'urban dicktionary'
p2084
aS'underdog'
p2085
aS'up yours'
p2086
aS'upstate'
p2087
aS'ultimate frisbee'
p2088
aS'university of michigan'
p2089
aS'ucsc'
p2090
aS'uci'
p2091
aS'unibrow'
p2092
aS'united nations'
p2093
aS'united airlines'
p2094
aS'uno'
p2095
aS'uc berkeley'
p2096
aS'uh-oh oreo'
p2097
aS'uber micro'
p2098
aS'unc'
p2099
aS'universe'
p2100
aS'university of florida'
p2101
aS'unpopular'
p2102
aS'ucf'
p2103
aS'unionville girls'
p2104
aS'us'
p2105
aS'umad'
p2106
aS'uncle'
p2107
aS'usain bolt'
p2108
aS'university of washington'
p2109
aS'united kingdom'
p2110
aS'ughh'
p2111
aS'university of alabama'
p2112
aS'uncle fucker'
p2113
aS'ufc'
p2114
aS'ubuntu'
p2115
aS'uptowns'
p2116
aS'urb'
p2117
aS'u.s.s.r.'
p2118
aS'ur mum'
p2119
aS'uke'
p2120
aS'udi'
p2121
aS'uppercunt'
p2122
aS'uzi'
p2123
aS'uff'
p2124
aS'ug'
p2125
aS'upper dublin'
p2126
aS'umbc'
p2127
aS'upperdeck'
p2128
aS'ville valo'
p2129
aS'vagina'
p2130
aS'valentine&apos;s day'
p2131
aS'victoria'
p2132
aS'vegetarian'
p2133
aS'vegan'
p2134
aS'virgin'
p2135
aS'vanessa'
p2136
aS'va-jay-jay'
p2137
aS'video games'
p2138
aS'vampire'
p2139
aS'vpilf'
p2140
aS'virginia'
p2141
aS'vans'
p2142
aS'vikings'
p2143
aS'vancouver'
p2144
aS'vuvuzela'
p2145
aS'vermont'
p2146
aS'veronica'
p2147
aS'vagitarian'
p2148
aS'victor'
p2149
aS'volleyball'
p2150
aS'vodka'
p2151
aS'vtec'
p2152
aS'volvo'
p2153
aS'vincent'
p2154
aS'virus'
p2155
aS'viola'
p2156
aS'vip'
p2157
aS'vanilla ice'
p2158
aS'voldemort'
p2159
aS'vanilla'
p2160
aS'v'
p2161
aS'vh1'
p2162
aS'vietnam'
p2163
aS'vag'
p2164
aS'vibrator'
p2165
aS'vulture'
p2166
aS'virginia tech'
p2167
aS'viacom'
p2168
aS'vista'
p2169
aS'vegemite'
p2170
aS'vicky'
p2171
aS'vin diesel'
p2172
aS'vince'
p2173
aS'valley girl'
p2174
aS'vine'
p2175
aS'virginity'
p2176
aS'vegeta'
p2177
aS'vietnamese'
p2178
aS'valeria'
p2179
aS'vibe'
p2180
aS'vamp'
p2181
aS'vixen'
p2182
aS'v8'
p2183
aS'v-card'
p2184
aS'vinny'
p2185
aS'v-i'
p2186
aS'valerie'
p2187
aS'van halen'
p2188
aS'vera'
p2189
aS'valentina'
p2190
aS'va-j-j'
p2191
aS'vega'
p2192
aS'valentine'
p2193
aS'victoria&apos;s secret'
p2194
aS'vics'
p2195
aS'virginia beach'
p2196
aS'volkswagen'
p2197
aS'voluntold'
p2198
aS'vevo'
p2199
aS'vanilla coke'
p2200
aS'village idiot'
p2201
aS'vlad'
p2202
aS'vestibule'
p2203
aS'vulcan'
p2204
aS'viper'
p2205
aS'violin'
p2206
aS'viagra'
p2207
aS'vivian'
p2208
aS'volcano'
p2209
aS'vinegar stroke'
p2210
aS'vito'
p2211
aS'velociraptor'
p2212
aS'vince carter'
p2213
aS'vegetable'
p2214
aS'vagenda'
p2215
aS'vain'
p2216
aS'viva la bam'
p2217
aS'vart'
p2218
aS'vampirefreaks'
p2219
aS'venus'
p2220
aS'vice city'
p2221
aS'vedgie'
p2222
aS'village'
p2223
aS'venezuela'
p2224
aS'venom'
p2225
aS'violet'
p2226
aS'vice'
p2227
aS'vaganus'
p2228
aS'walmart'
p2229
aS'weed'
p2230
aS'wigger'
p2231
aS'world of warcraft'
p2232
aS'woman'
p2233
aS'whore'
p2234
aS'white trash'
p2235
aS'wtf'
p2236
aS'wedgie'
p2237
aS'windows'
p2238
aS'william'
p2239
aS'wikipedia'
p2240
aS'wow'
p2241
aS'wigga'
p2242
aS'wanksta'
p2243
aS'will'
p2244
aS'whipped'
p2245
aS'wet'
p2246
aS'war'
p2247
aS'we need to talk'
p2248
aS'wapanese'
p2249
aS'word'
p2250
aS'wii'
p2251
aS'work'
p2252
aS'westboro baptist church'
p2253
aS'wendy'
p2254
aS'wanker'
p2255
aS'wife beater'
p2256
aS'wisconsin'
p2257
aS'wank'
p2258
aS'w-enis'
p2259
aS'welfare'
p2260
aS'wicked'
p2261
aS'waffle'
p2262
aS'windows me'
p2263
aS'whatever'
p2264
aS'wales'
p2265
aS'wyatt'
p2266
aS'wang'
p2267
aS'wifey'
p2268
aS'wet-back'
p2269
aS'womanizer'
p2270
aS'wogs'
p2271
aS'white boy'
p2272
aS'windows vista'
p2273
aS'white girl'
p2274
aS'weird'
p2275
aS'wasp'
p2276
aS'wolf'
p2277
aS'winning'
p2278
aS'weezer'
p2279
aS'woot'
p2280
aS'wookie'
p2281
aS'wwe'
p2282
aS'wrestling'
p2283
aS'wife'
p2284
aS'whip'
p2285
aS'wannabe'
p2286
aS'whispering eye'
p2287
aS'weeaboo'
p2288
aS'weenis'
p2289
aS'wing-nut'
p2290
aS'weak sauce'
p2291
aS'wop'
p2292
aS'what?!'
p2293
aS'wyoming'
p2294
aS'wood'
p2295
aS'waldo'
p2296
aS'wu tang'
p2297
aS'white people'
p2298
aS'whitey'
p2299
aS'water'
p2300
aS'westchester'
p2301
aS'window licker'
p2302
aS'w00t'
p2303
aS'whitney'
p2304
aS'whack'
p2305
aS'w'
p2306
aS'wallflower'
p2307
aS'whale'
p2308
aS'why'
p2309
aS'wicca'
p2310
aS'womp'
p2311
aS'what it do'
p2312
aS'weasel'
p2313
aS'wemo'
p2314
aS'whats good?'
p2315
aS'wmd'
p2316
aS'wingman'
p2317
aS'woo'
p2318
aS'wilson'
p2319
aS'woody'
p2320
aS'wawa'
p2321
aS'wizard'
p2322
aS'windows xp'
p2323
aS'wings'
p2324
aS'welsh'
p2325
aS'wolverine'
p2326
aS'whatevs'
p2327
aS'west virginia'
p2328
aS'xbox 360'
p2329
aS'xbox'
p2330
aS'xd'
p2331
aS'xbox live'
p2332
aS'xanga'
p2333
aS'xxx'
p2334
aS'xavier'
p2335
aS'xanax'
p2336
aS'x'
p2337
aS'x-factor'
p2338
aS'xzibit'
p2339
aS'xmas'
p2340
aS'xanadu'
p2341
aS'xenu'
p2342
aS'xena'
p2343
aS'xiv'
p2344
aS'xo'
p2345
aS'xp'
p2346
aS'xenia'
p2347
aS'xoxo'
p2348
aS'xander'
p2349
aS'xcore'
p2350
aS'x-files'
p2351
aS'xbox fanboy'
p2352
aS'xbox one'
p2353
aS'xenimus'
p2354
aS'xtreme'
p2355
aS'xyz'
p2356
aS'xjokerz'
p2357
aS'xtina'
p2358
aS'xan'
p2359
aS'xenomorph'
p2360
aS'ximena'
p2361
aS'xbot'
p2362
aS'xx'
p2363
aS'xenophobe'
p2364
aS'xtc'
p2365
aS'x-japan'
p2366
aS'x-phile'
p2367
aS'xbone'
p2368
aS'xerxes'
p2369
aS'x play'
p2370
aS'xerox'
p2371
aS'xenophobia'
p2372
aS'xj'
p2373
aS'x-men'
p2374
aS'xc'
p2375
aS'xobile'
p2376
aS'xeno'
p2377
aS'xero'
p2378
aS'xenogears'
p2379
aS'xanax bar'
p2380
aS'x-raided'
p2381
aS'xxl'
p2382
aS'xat'
p2383
aS'xylophone'
p2384
aS'x3'
p2385
aS'xanny'
p2386
aS'xbox customer support'
p2387
aS'xiando'
p2388
aS'xkcd'
p2389
aS'xfl'
p2390
aS'xboned'
p2391
aS'xtian'
p2392
aS'xtube'
p2393
aS'xor'
p2394
aS'xxxtentacion'
p2395
aS'xian'
p2396
aS'x-pac'
p2397
aS'xenosaga'
p2398
aS'xing'
p2399
aS'xavi'
p2400
aS'xeus'
p2401
aS'x0r'
p2402
aS'xf'
p2403
aS'xs'
p2404
aS'xion'
p2405
aS'xfinity'
p2406
aS'xenon'
p2407
aS'xanthe'
p2408
aS'xe'
p2409
aS'xxxx'
p2410
aS'xiahou dun'
p2411
aS'xl'
p2412
aS'x-bomb'
p2413
aS'xq'
p2414
aS'xochitl'
p2415
aS'x-rated'
p2416
aS'xbox toughguy'
p2417
aS'xboner'
p2418
aS'x&apos;ed'
p2419
aS'xandir'
p2420
aS'xenocide'
p2421
aS'xvx'
p2422
aS'xandria'
p2423
aS'xigdem'
p2424
aS'xyl'
p2425
aS'xxx-mas'
p2426
aS'xm'
p2427
aS'xellie'
p2428
aS'your mom'
p2429
aS'youtube'
p2430
aS'yankee'
p2431
aS'yolo'
p2432
aS'you'
p2433
aS'yo'
p2434
aS'yugioh'
p2435
aS'yaoi'
p2436
aS'yuppie'
p2437
aS'yo mama!'
p2438
aS'y&apos;all'
p2439
aS'your face'
p2440
aS'yoda'
p2441
aS'yams'
p2442
aS'yahoo answers'
p2443
aS'yes!'
p2444
aS'ya mum'
p2445
aS'your mum'
p2446
aS'yank'
p2447
aS'yeet'
p2448
aS'yay'
p2449
aS'youtube comments'
p2450
aS'yellow fever'
p2451
aS'yo momma'
p2452
aS'yayo'
p2453
aS'yeah'
p2454
aS'yoyo'
p2455
aS'yar'
p2456
aS'yahtzee'
p2457
aS'your'
p2458
aS'yonkers'
p2459
aS'yee'
p2460
aS'yaya'
p2461
aS'yard sale'
p2462
aS'yasmin'
p2463
aS'yak'
p2464
aS'yum-yum'
p2465
aS'ya'
p2466
aS'yellow'
p2467
aS'youtuber'
p2468
aS'yoink'
p2469
aS'yeti'
p2470
aS'yard ape'
p2471
aS'yang'
p2472
aS'your mother'
p2473
aS'yuri'
p2474
aS'yngwie malmsteen'
p2475
aS'you&apos;re'
p2476
aS'youngstown'
p2477
aS'yellowcard'
p2478
aS'yokes'
p2479
aS'yao ming'
p2480
aS'yas'
p2481
aS'ye'
p2482
aS'ymca'
p2483
aS'yiff'
p2484
aS'yard'
p2485
aS'y\xc3\x89yo'
p2486
aS'yodo'
p2487
aS'yuri on ice'
p2488
aS'yorkshire'
p2489
aS'yea'
p2490
aS'young buck'
p2491
aS'yag'
p2492
aS'youtube poop'
p2493
aS'yum'
p2494
aS'yandere'
p2495
aS'yay area'
p2496
aS'yesh'
p2497
aS'yoshi'
p2498
aS'y2k'
p2499
aS'yer maw'
p2500
aS'yoko ono'
p2501
aS'yoohoo'
p2502
aS'yu yu hakusho'
p2503
aS'yee haw'
p2504
aS'yawn'
p2505
aS'ying yang'
p2506
aS'yale'
p2507
aS'yass'
p2508
aS'y'
p2509
aS'yasmine'
p2510
aS'yoko'
p2511
aS'young'
p2512
aS'york'
p2513
aS'yadadamean'
p2514
aS'yash'
p2515
aS'yummy'
p2516
aS'you got served'
p2517
aS'yarr!'
p2518
aS'yup'
p2519
aS'yonks'
p2520
aS'yani'
p2521
aS'ytmnd'
p2522
aS'yah'
p2523
aS'yinz'
p2524
aS'ying'
p2525
aS'yahweh'
p2526
aS'yips'
p2527
aS'ytf'
p2528
aS'zoe'
p2529
aS'zach'
p2530
aS'zelda'
p2531
aS'zack'
p2532
aS'zombie'
p2533
aS'zomg'
p2534
aS'zachary'
p2535
aS'zero'
p2536
aS'zayn'
p2537
aS'zac'
p2538
aS'zune'
p2539
aS'zionist'
p2540
aS'zac efron'
p2541
aS'zebra'
p2542
aS'zion'
p2543
aS'zj'
p2544
aS'z'
p2545
aS'zooted'
p2546
aS'zoot'
p2547
aS'zane'
p2548
aS'zak'
p2549
aS'zoey'
p2550
aS'zeus'
p2551
aS'zigzag'
p2552
aS'ziggy'
p2553
aS'zing'
p2554
aS'zen'
p2555
aS'zidane'
p2556
aS'zeeky boogy doog'
p2557
aS'zeke'
p2558
aS'zakk wylde'
p2559
aS'zip'
p2560
aS'zed'
p2561
aS'zionism'
p2562
aS'zoolander'
p2563
aS'zara'
p2564
aS'zig'
p2565
aS'zap'
p2566
aS'za'
p2567
aS'ze'
p2568
aS'zayn malik'
p2569
aS'zipperhead'
p2570
aS'zerg rush'
p2571
aS'zain'
p2572
aS'zanzibar'
p2573
aS'zit'
p2574
aS'zoidberg'
p2575
aS'zander'
p2576
aS'zinger'
p2577
aS'zezima'
p2578
aS'zero tolerance'
p2579
aS'zim'
p2580
aS'zz top'
p2581
aS'zoom'
p2582
aS'zahra'
p2583
aS'zorro'
p2584
aS'zamboni'
p2585
aS'zacky vengeance'
p2586
aS'zeppelin'
p2587
aS'zippy&apos;s'
p2588
aS'zippo'
p2589
aS'zorch'
p2590
aS'zonked'
p2591
aS'zerg'
p2592
aS'zainab'
p2593
aS'zone'
p2594
aS'z job'
p2595
aS'zumiez'
p2596
aS'zipper'
p2597
aS'zoso'
p2598
aS'zuzu'
p2599
aS'zoid'
p2600
aS'zoinks'
p2601
aS'zeek'
p2602
aS'zuko'
p2603
aS'zombies'
p2604
aS'zoo'
p2605
aS'zoop'
p2606
aS'zag'
p2607
aS'zombie apocalypse'
p2608
aS'zodiac killer'
p2609
aS'zor'
p2610
aS'zealot'
p2611
aS'zuckerberg'
p2612
aS'zog'
p2613
aS'zan'
p2614
aS'zee'
p2615
aS'zaid'
p2616
aS'zazz'
p2617
aS'zug-zug'
p2618
aS'zesty'
p2619
aS'zaria'
p2620
aS'zilla'
p2621
aS'zoobs'
p2622
aS'zoya'
p2623
aS'zulu'
p2624
aS'zoomies'
p2625
aS'zena'
p2626
aS'zooks'
p2627
aS'zeb'
p2628
aS'corey'
p2629
aS'james'
p2630
a.